target datalayout = "e-m:e-p270:32:32-p271:32:32-p272:64:64-i64:64-i128:128-f80:128-n8:16:32:64-S128"
target triple = "x86_64-pc-linux-gnu"

%struct.SwsPass = type { ptr, ptr, i32, i32, i32, i32, i32, ptr, %struct.SwsImg, ptr, ptr, ptr }
%struct.SwsImg = type { i32, [4 x ptr], [4 x i32] }
%struct.SwsContext = type { ptr, ptr, i32, [2 x double], i32, i32, i32, i32, i32, i32, i32, i32, i32, i32, i32, i32, i32, i32, i32, i32, i32 }
%struct.AVPixFmtDescriptor = type { ptr, i8, i8, i8, i64, [4 x %struct.AVComponentDescriptor], ptr }
%struct.AVComponentDescriptor = type { i32, i32, i32, i32, i32 }
%struct.SwsInternal = type { %struct.SwsContext, ptr, ptr, ptr, ptr, i32, [2 x ptr], i32, i32, ptr, i32, i32, i32, i32, i32, i32, i32, i32, i32, i32, i32, i32, i32, i32, i32, i32, i32, i32, ptr, ptr, %struct.RangeList, [3 x ptr], [2 x [4 x i32]], [2 x [4 x ptr]], i32, double, i32, ptr, ptr, i32, [2 x i32], i32, ptr, ptr, [256 x i32], [256 x i32], [256 x float], i32, i32, ptr, i32, ptr, ptr, ptr, ptr, ptr, ptr, ptr, ptr, i32, i32, i32, i32, i32, i32, ptr, ptr, i32, i32, i32, ptr, [8 x i8], [1280 x i32], [1280 x ptr], [1280 x ptr], [1280 x ptr], [176 x i32], [4 x ptr], i32, i32, i32, [4 x i32], [4 x i32], i32, i32, i32, i32, i32, i32, i32, i32, i32, i32, i64, i64, i64, i64, i64, i64, i64, i64, i64, i64, i64, [1024 x i32], [1024 x i32], i32, i64, i64, i64, i64, i64, [1024 x i32], i64, i64, [8 x i16], [8 x i32], ptr, ptr, i32, ptr, ptr, ptr, ptr, [3 x [4 x i16]], [3 x [4 x i16]], ptr, ptr, ptr, ptr, ptr, ptr, ptr, ptr, ptr, ptr, ptr, ptr, ptr, ptr, ptr, ptr, ptr, ptr, ptr, ptr, i32, i32, i64, i64, i32, ptr, i32, ptr, i32, i32, i32, i32, i32, ptr }
%struct.RangeList = type { ptr, i32, i32 }

; Function Attrs: alwaysinline nounwind willreturn memory(none) uwtable
define internal i32 @ff_fmt_vshift(i32 noundef %0, i32 noundef %1) #9 {
  %3 = alloca i32, align 4
  %4 = alloca i32, align 4
  %5 = alloca ptr, align 8
  store i32 %0, ptr %3, align 4, !tbaa !9
  store i32 %1, ptr %4, align 4, !tbaa !9
  call void @llvm.lifetime.start.p0(i64 8, ptr %5) #11
  %6 = load i32, ptr %3, align 4, !tbaa !9
  %7 = call ptr @av_pix_fmt_desc_get(i32 noundef %6)
  store ptr %7, ptr %5, align 8, !tbaa !49
  %8 = load i32, ptr %4, align 4, !tbaa !9
  %9 = icmp eq i32 %8, 1
  br i1 %9, label %13, label %10

10:                                               ; preds = %2
  %11 = load i32, ptr %4, align 4, !tbaa !9
  %12 = icmp eq i32 %11, 2
  br i1 %12, label %13, label %18

13:                                               ; preds = %10, %2
  %14 = load ptr, ptr %5, align 8, !tbaa !49
  %15 = getelementptr inbounds nuw %struct.AVPixFmtDescriptor, ptr %14, i32 0, i32 3
  %16 = load i8, ptr %15, align 2, !tbaa !120
  %17 = zext i8 %16 to i32
  br label %19

18:                                               ; preds = %10
  br label %19

19:                                               ; preds = %18, %13
  %20 = phi i32 [ %17, %13 ], [ 0, %18 ]
  call void @llvm.lifetime.end.p0(i64 8, ptr %5) #11
  ret i32 %20
}

; Function Attrs: alwaysinline nounwind uwtable
define internal i32 @usePal(i32 noundef %0) #6 {
  %2 = alloca i32, align 4
  %3 = alloca i32, align 4
  store i32 %0, ptr %3, align 4, !tbaa !9
  %4 = load i32, ptr %3, align 4, !tbaa !9
  switch i32 %4, label %6 [
    i32 11, label %5
    i32 19, label %5
    i32 17, label %5
    i32 8, label %5
    i32 22, label %5
    i32 20, label %5
  ]

5:                                                ; preds = %1, %1, %1, %1, %1, %1
  store i32 1, ptr %2, align 4
  br label %7

6:                                                ; preds = %1
  store i32 0, ptr %2, align 4
  br label %7

7:                                                ; preds = %6, %5
  %8 = load i32, ptr %2, align 4
  ret i32 %8
}

; Function Attrs: inlinehint nounwind willreturn memory(argmem: readwrite) uwtable
define internal void @ff_sws_img_shift(ptr dead_on_unwind noalias writable sret(%struct.SwsImg) align 8 %0, ptr noundef %1, i32 noundef %2) #8 {
  %4 = alloca ptr, align 8
  %5 = alloca i32, align 4
  %6 = alloca i32, align 4
  store ptr %1, ptr %4, align 8, !tbaa !59
  store i32 %2, ptr %5, align 4, !tbaa !9
  %7 = load ptr, ptr %4, align 8, !tbaa !59
  call void @llvm.memcpy.p0.p0.i64(ptr align 8 %0, ptr align 8 %7, i64 56, i1 false), !tbaa.struct !118
  call void @llvm.lifetime.start.p0(i64 4, ptr %6) #11
  store i32 0, ptr %6, align 4, !tbaa !9
  br label %8

8:                                                ; preds = %41, %3
  %9 = load i32, ptr %6, align 4, !tbaa !9
  %10 = icmp slt i32 %9, 4
  br i1 %10, label %11, label %18

11:                                               ; preds = %8
  %12 = getelementptr inbounds nuw %struct.SwsImg, ptr %0, i32 0, i32 1
  %13 = load i32, ptr %6, align 4, !tbaa !9
  %14 = sext i32 %13 to i64
  %15 = getelementptr inbounds [4 x ptr], ptr %12, i64 0, i64 %14
  %16 = load ptr, ptr %15, align 8, !tbaa !68
  %17 = icmp ne ptr %16, null
  br label %18

18:                                               ; preds = %11, %8
  %19 = phi i1 [ false, %8 ], [ %17, %11 ]
  br i1 %19, label %21, label %20

20:                                               ; preds = %18
  call void @llvm.lifetime.end.p0(i64 4, ptr %6) #11
  br label %44

21:                                               ; preds = %18
  %22 = load i32, ptr %5, align 4, !tbaa !9
  %23 = getelementptr inbounds nuw %struct.SwsImg, ptr %0, i32 0, i32 0
  %24 = load i32, ptr %23, align 8, !tbaa !111
  %25 = load i32, ptr %6, align 4, !tbaa !9
  %26 = call i32 @ff_fmt_vshift(i32 noundef %24, i32 noundef %25) #14
  %27 = ashr i32 %22, %26
  %28 = getelementptr inbounds nuw %struct.SwsImg, ptr %0, i32 0, i32 2
  %29 = load i32, ptr %6, align 4, !tbaa !9
  %30 = sext i32 %29 to i64
  %31 = getelementptr inbounds [4 x i32], ptr %28, i64 0, i64 %30
  %32 = load i32, ptr %31, align 4, !tbaa !9
  %33 = mul nsw i32 %27, %32
  %34 = getelementptr inbounds nuw %struct.SwsImg, ptr %0, i32 0, i32 1
  %35 = load i32, ptr %6, align 4, !tbaa !9
  %36 = sext i32 %35 to i64
  %37 = getelementptr inbounds [4 x ptr], ptr %34, i64 0, i64 %36
  %38 = load ptr, ptr %37, align 8, !tbaa !68
  %39 = sext i32 %33 to i64
  %40 = getelementptr inbounds i8, ptr %38, i64 %39
  store ptr %40, ptr %37, align 8, !tbaa !68
  br label %41

41:                                               ; preds = %21
  %42 = load i32, ptr %6, align 4, !tbaa !9
  %43 = add nsw i32 %42, 1
  store i32 %43, ptr %6, align 4, !tbaa !9
  br label %8, !llvm.loop !119

44:                                               ; preds = %20
  ret void
}

; Function Attrs: inlinehint nounwind uwtable
define internal ptr @sws_internal(ptr noundef %0) #4 {
  %2 = alloca ptr, align 8
  store ptr %0, ptr %2, align 8, !tbaa !42
  %3 = load ptr, ptr %2, align 8, !tbaa !42
  ret ptr %3
}

; Function Attrs: inlinehint nounwind uwtable
define internal ptr @slice_ctx(ptr noundef %0, i32 noundef %1) #4 {
  %3 = alloca ptr, align 8
  %4 = alloca ptr, align 8
  %5 = alloca i32, align 4
  %6 = alloca ptr, align 8
  %7 = alloca ptr, align 8
  %8 = alloca i32, align 4
  %9 = alloca ptr, align 8
  store ptr %0, ptr %4, align 8, !tbaa !11
  store i32 %1, ptr %5, align 4, !tbaa !9
  call void @llvm.lifetime.start.p0(i64 8, ptr %6) #11
  %10 = load ptr, ptr %4, align 8, !tbaa !11
  %11 = getelementptr inbounds nuw %struct.SwsPass, ptr %10, i32 0, i32 11
  %12 = load ptr, ptr %11, align 8, !tbaa !18
  store ptr %12, ptr %6, align 8, !tbaa !42
  call void @llvm.lifetime.start.p0(i64 8, ptr %7) #11
  %13 = load ptr, ptr %6, align 8, !tbaa !42
  %14 = call ptr @sws_internal(ptr noundef %13)
  store ptr %14, ptr %7, align 8, !tbaa !125
  %15 = load ptr, ptr %4, align 8, !tbaa !11
  %16 = getelementptr inbounds nuw %struct.SwsPass, ptr %15, i32 0, i32 6
  %17 = load i32, ptr %16, align 8, !tbaa !25
  %18 = icmp eq i32 %17, 1
  br i1 %18, label %19, label %21

19:                                               ; preds = %2
  %20 = load ptr, ptr %6, align 8, !tbaa !42
  store ptr %20, ptr %3, align 8
  store i32 1, ptr %8, align 4
  br label %55

21:                                               ; preds = %2
  %22 = load ptr, ptr %7, align 8, !tbaa !125
  %23 = getelementptr inbounds nuw %struct.SwsInternal, ptr %22, i32 0, i32 3
  %24 = load ptr, ptr %23, align 16, !tbaa !143
  %25 = load i32, ptr %5, align 4, !tbaa !9
  %26 = load ptr, ptr %4, align 8, !tbaa !11
  %27 = getelementptr inbounds nuw %struct.SwsPass, ptr %26, i32 0, i32 5
  %28 = load i32, ptr %27, align 4, !tbaa !24
  %29 = sdiv i32 %25, %28
  %30 = sext i32 %29 to i64
  %31 = getelementptr inbounds ptr, ptr %24, i64 %30
  %32 = load ptr, ptr %31, align 8, !tbaa !42
  store ptr %32, ptr %6, align 8, !tbaa !42
  %33 = load ptr, ptr %6, align 8, !tbaa !42
  %34 = getelementptr inbounds nuw %struct.SwsContext, ptr %33, i32 0, i32 12
  %35 = load i32, ptr %34, align 8, !tbaa !101
  %36 = call i32 @usePal(i32 noundef %35)
  %37 = icmp ne i32 %36, 0
  br i1 %37, label %38, label %53

38:                                               ; preds = %21
  call void @llvm.lifetime.start.p0(i64 8, ptr %9) #11
  %39 = load ptr, ptr %6, align 8, !tbaa !42
  %40 = call ptr @sws_internal(ptr noundef %39)
  store ptr %40, ptr %9, align 8, !tbaa !125
  %41 = load ptr, ptr %9, align 8, !tbaa !125
  %42 = getelementptr inbounds nuw %struct.SwsInternal, ptr %41, i32 0, i32 44
  %43 = getelementptr inbounds [256 x i32], ptr %42, i64 0, i64 0
  %44 = load ptr, ptr %7, align 8, !tbaa !125
  %45 = getelementptr inbounds nuw %struct.SwsInternal, ptr %44, i32 0, i32 44
  %46 = getelementptr inbounds [256 x i32], ptr %45, i64 0, i64 0
  call void @llvm.memcpy.p0.p0.i64(ptr align 16 %43, ptr align 16 %46, i64 1024, i1 false)
  %47 = load ptr, ptr %9, align 8, !tbaa !125
  %48 = getelementptr inbounds nuw %struct.SwsInternal, ptr %47, i32 0, i32 45
  %49 = getelementptr inbounds [256 x i32], ptr %48, i64 0, i64 0
  %50 = load ptr, ptr %7, align 8, !tbaa !125
  %51 = getelementptr inbounds nuw %struct.SwsInternal, ptr %50, i32 0, i32 45
  %52 = getelementptr inbounds [256 x i32], ptr %51, i64 0, i64 0
  call void @llvm.memcpy.p0.p0.i64(ptr align 16 %49, ptr align 16 %52, i64 1024, i1 false)
  call void @llvm.lifetime.end.p0(i64 8, ptr %9) #11
  br label %53

53:                                               ; preds = %38, %21
  %54 = load ptr, ptr %6, align 8, !tbaa !42
  store ptr %54, ptr %3, align 8
  store i32 1, ptr %8, align 4
  br label %55

55:                                               ; preds = %53, %19
  call void @llvm.lifetime.end.p0(i64 8, ptr %7) #11
  call void @llvm.lifetime.end.p0(i64 8, ptr %6) #11
  %56 = load ptr, ptr %3, align 8
  ret ptr %56
}

; Function Attrs: nounwind uwtable
define internal void @run_legacy_swscale(ptr noundef %0, ptr noundef %1, i32 noundef %2, i32 noundef %3, ptr noundef %4) #0 {
  %6 = alloca ptr, align 8
  %7 = alloca ptr, align 8
  %8 = alloca i32, align 4
  %9 = alloca i32, align 4
  %10 = alloca ptr, align 8
  %11 = alloca ptr, align 8
  %12 = alloca ptr, align 8
  %13 = alloca %struct.SwsImg, align 8
  store ptr %0, ptr %6, align 8, !tbaa !59
  store ptr %1, ptr %7, align 8, !tbaa !59
  store i32 %2, ptr %8, align 4, !tbaa !9
  store i32 %3, ptr %9, align 4, !tbaa !9
  store ptr %4, ptr %10, align 8, !tbaa !11
  call void @llvm.lifetime.start.p0(i64 8, ptr %11) #11
  %14 = load ptr, ptr %10, align 8, !tbaa !11
  %15 = load i32, ptr %8, align 4, !tbaa !9
  %16 = call ptr @slice_ctx(ptr noundef %14, i32 noundef %15)
  store ptr %16, ptr %11, align 8, !tbaa !42
  call void @llvm.lifetime.start.p0(i64 8, ptr %12) #11
  %17 = load ptr, ptr %11, align 8, !tbaa !42
  %18 = call ptr @sws_internal(ptr noundef %17)
  store ptr %18, ptr %12, align 8, !tbaa !125
  call void @llvm.lifetime.start.p0(i64 56, ptr %13) #11
  %19 = load ptr, ptr %6, align 8, !tbaa !59
  %20 = load i32, ptr %8, align 4, !tbaa !9
  call void @ff_sws_img_shift(ptr dead_on_unwind writable sret(%struct.SwsImg) align 8 %13, ptr noundef %19, i32 noundef %20) #13
  %21 = load ptr, ptr %12, align 8, !tbaa !125
  %22 = load ptr, ptr %7, align 8, !tbaa !59
  %23 = getelementptr inbounds nuw %struct.SwsImg, ptr %22, i32 0, i32 1
  %24 = getelementptr inbounds [4 x ptr], ptr %23, i64 0, i64 0
  %25 = load ptr, ptr %7, align 8, !tbaa !59
  %26 = getelementptr inbounds nuw %struct.SwsImg, ptr %25, i32 0, i32 2
  %27 = getelementptr inbounds [4 x i32], ptr %26, i64 0, i64 0
  %28 = load ptr, ptr %11, align 8, !tbaa !42
  %29 = getelementptr inbounds nuw %struct.SwsContext, ptr %28, i32 0, i32 9
  %30 = load i32, ptr %29, align 4, !tbaa !100
  %31 = getelementptr inbounds nuw %struct.SwsImg, ptr %13, i32 0, i32 1
  %32 = getelementptr inbounds [4 x ptr], ptr %31, i64 0, i64 0
  %33 = getelementptr inbounds nuw %struct.SwsImg, ptr %13, i32 0, i32 2
  %34 = getelementptr inbounds [4 x i32], ptr %33, i64 0, i64 0
  %35 = load i32, ptr %8, align 4, !tbaa !9
  %36 = load i32, ptr %9, align 4, !tbaa !9
  %37 = call i32 @ff_swscale(ptr noundef %21, ptr noundef %24, ptr noundef %27, i32 noundef 0, i32 noundef %30, ptr noundef %32, ptr noundef %34, i32 noundef %35, i32 noundef %36)
  call void @llvm.lifetime.end.p0(i64 56, ptr %13) #11
  call void @llvm.lifetime.end.p0(i64 8, ptr %12) #11
  call void @llvm.lifetime.end.p0(i64 8, ptr %11) #11
  ret void
}